; ModuleID = '6/1461.c'
source_filename = "6/1461.c"
target datalayout = "e-m:e-p270:32:32-p271:32:32-p272:64:64-i64:64-f80:128-n8:16:32:64-S128"
target triple = "x86_64-pc-linux-gnu"

@.str = private unnamed_addr constant [3 x i8] c"%d\00", align 1
@.str.1 = private unnamed_addr constant [5 x i8] c"%d%d\00", align 1
@.str.2 = private unnamed_addr constant [4 x i8] c"%d\0A\00", align 1

; Function Attrs: noinline nounwind uwtable
define dso_local i32 @main() #0 {
  %1 = alloca i32, align 4
  %2 = alloca i32, align 4
  %3 = alloca i32, align 4
  %4 = alloca i32, align 4
  %5 = alloca i32, align 4
  %6 = alloca [100 x [100 x i32]], align 16
  %7 = alloca i32, align 4
  %8 = alloca i32, align 4
  %9 = alloca [100 x i32], align 16
  store i32 0, i32* %1, align 4
  %10 = call i32 (i8*, ...) @__isoc99_scanf(i8* getelementptr inbounds ([3 x i8], [3 x i8]* @.str, i64 0, i64 0), i32* %2)
  store i32 0, i32* %5, align 4
  br label %11

11:                                               ; preds = %19, %0
  %12 = load i32, i32* %5, align 4
  %13 = load i32, i32* %2, align 4
  %14 = icmp slt i32 %12, %13
  br i1 %14, label %15, label %22

15:                                               ; preds = %11
  %16 = load i32, i32* %5, align 4
  %17 = sext i32 %16 to i64
  %18 = getelementptr inbounds [100 x i32], [100 x i32]* %9, i64 0, i64 %17
  store i32 0, i32* %18, align 4
  br label %19

19:                                               ; preds = %15
  %20 = load i32, i32* %5, align 4
  %21 = add nsw i32 %20, 1
  store i32 %21, i32* %5, align 4
  br label %11

22:                                               ; preds = %11
  store i32 0, i32* %5, align 4
  br label %23

23:                                               ; preds = %162, %22
  %24 = load i32, i32* %5, align 4
  %25 = load i32, i32* %2, align 4
  %26 = icmp slt i32 %24, %25
  br i1 %26, label %27, label %165

27:                                               ; preds = %23
  %28 = call i32 (i8*, ...) @__isoc99_scanf(i8* getelementptr inbounds ([5 x i8], [5 x i8]* @.str.1, i64 0, i64 0), i32* %3, i32* %4)
  store i32 0, i32* %7, align 4
  br label %29

29:                                               ; preds = %50, %27
  %30 = load i32, i32* %7, align 4
  %31 = load i32, i32* %3, align 4
  %32 = icmp slt i32 %30, %31
  br i1 %32, label %33, label %53

33:                                               ; preds = %29
  store i32 0, i32* %8, align 4
  br label %34

34:                                               ; preds = %46, %33
  %35 = load i32, i32* %8, align 4
  %36 = load i32, i32* %4, align 4
  %37 = icmp slt i32 %35, %36
  br i1 %37, label %38, label %49

38:                                               ; preds = %34
  %39 = load i32, i32* %7, align 4
  %40 = sext i32 %39 to i64
  %41 = getelementptr inbounds [100 x [100 x i32]], [100 x [100 x i32]]* %6, i64 0, i64 %40
  %42 = load i32, i32* %8, align 4
  %43 = sext i32 %42 to i64
  %44 = getelementptr inbounds [100 x i32], [100 x i32]* %41, i64 0, i64 %43
  %45 = call i32 (i8*, ...) @__isoc99_scanf(i8* getelementptr inbounds ([3 x i8], [3 x i8]* @.str, i64 0, i64 0), i32* %44)
  br label %46

46:                                               ; preds = %38
  %47 = load i32, i32* %8, align 4
  %48 = add nsw i32 %47, 1
  store i32 %48, i32* %8, align 4
  br label %34

49:                                               ; preds = %34
  br label %50

50:                                               ; preds = %49
  %51 = load i32, i32* %7, align 4
  %52 = add nsw i32 %51, 1
  store i32 %52, i32* %7, align 4
  br label %29

53:                                               ; preds = %29
  store i32 0, i32* %8, align 4
  br label %54

54:                                               ; preds = %82, %53
  %55 = load i32, i32* %8, align 4
  %56 = load i32, i32* %4, align 4
  %57 = icmp slt i32 %55, %56
  br i1 %57, label %58, label %85

58:                                               ; preds = %54
  %59 = getelementptr inbounds [100 x [100 x i32]], [100 x [100 x i32]]* %6, i64 0, i64 0
  %60 = load i32, i32* %8, align 4
  %61 = sext i32 %60 to i64
  %62 = getelementptr inbounds [100 x i32], [100 x i32]* %59, i64 0, i64 %61
  %63 = load i32, i32* %62, align 4
  %64 = load i32, i32* %5, align 4
  %65 = sext i32 %64 to i64
  %66 = getelementptr inbounds [100 x i32], [100 x i32]* %9, i64 0, i64 %65
  %67 = load i32, i32* %66, align 4
  %68 = add nsw i32 %67, %63
  store i32 %68, i32* %66, align 4
  %69 = load i32, i32* %3, align 4
  %70 = sub nsw i32 %69, 1
  %71 = sext i32 %70 to i64
  %72 = getelementptr inbounds [100 x [100 x i32]], [100 x [100 x i32]]* %6, i64 0, i64 %71
  %73 = load i32, i32* %8, align 4
  %74 = sext i32 %73 to i64
  %75 = getelementptr inbounds [100 x i32], [100 x i32]* %72, i64 0, i64 %74
  %76 = load i32, i32* %75, align 4
  %77 = load i32, i32* %5, align 4
  %78 = sext i32 %77 to i64
  %79 = getelementptr inbounds [100 x i32], [100 x i32]* %9, i64 0, i64 %78
  %80 = load i32, i32* %79, align 4
  %81 = add nsw i32 %80, %76
  store i32 %81, i32* %79, align 4
  br label %82

82:                                               ; preds = %58
  %83 = load i32, i32* %8, align 4
  %84 = add nsw i32 %83, 1
  store i32 %84, i32* %8, align 4
  br label %54

85:                                               ; preds = %54
  store i32 0, i32* %7, align 4
  br label %86

86:                                               ; preds = %114, %85
  %87 = load i32, i32* %7, align 4
  %88 = load i32, i32* %3, align 4
  %89 = icmp slt i32 %87, %88
  br i1 %89, label %90, label %117

90:                                               ; preds = %86
  %91 = load i32, i32* %7, align 4
  %92 = sext i32 %91 to i64
  %93 = getelementptr inbounds [100 x [100 x i32]], [100 x [100 x i32]]* %6, i64 0, i64 %92
  %94 = getelementptr inbounds [100 x i32], [100 x i32]* %93, i64 0, i64 0
  %95 = load i32, i32* %94, align 16
  %96 = load i32, i32* %5, align 4
  %97 = sext i32 %96 to i64
  %98 = getelementptr inbounds [100 x i32], [100 x i32]* %9, i64 0, i64 %97
  %99 = load i32, i32* %98, align 4
  %100 = add nsw i32 %99, %95
  store i32 %100, i32* %98, align 4
  %101 = load i32, i32* %7, align 4
  %102 = sext i32 %101 to i64
  %103 = getelementptr inbounds [100 x [100 x i32]], [100 x [100 x i32]]* %6, i64 0, i64 %102
  %104 = load i32, i32* %4, align 4
  %105 = sub nsw i32 %104, 1
  %106 = sext i32 %105 to i64
  %107 = getelementptr inbounds [100 x i32], [100 x i32]* %103, i64 0, i64 %106
  %108 = load i32, i32* %107, align 4
  %109 = load i32, i32* %5, align 4
  %110 = sext i32 %109 to i64
  %111 = getelementptr inbounds [100 x i32], [100 x i32]* %9, i64 0, i64 %110
  %112 = load i32, i32* %111, align 4
  %113 = add nsw i32 %112, %108
  store i32 %113, i32* %111, align 4
  br label %114

114:                                              ; preds = %90
  %115 = load i32, i32* %7, align 4
  %116 = add nsw i32 %115, 1
  store i32 %116, i32* %7, align 4
  br label %86

117:                                              ; preds = %86
  %118 = getelementptr inbounds [100 x [100 x i32]], [100 x [100 x i32]]* %6, i64 0, i64 0
  %119 = getelementptr inbounds [100 x i32], [100 x i32]* %118, i64 0, i64 0
  %120 = load i32, i32* %119, align 16
  %121 = load i32, i32* %5, align 4
  %122 = sext i32 %121 to i64
  %123 = getelementptr inbounds [100 x i32], [100 x i32]* %9, i64 0, i64 %122
  %124 = load i32, i32* %123, align 4
  %125 = sub nsw i32 %124, %120
  store i32 %125, i32* %123, align 4
  %126 = load i32, i32* %3, align 4
  %127 = sub nsw i32 %126, 1
  %128 = sext i32 %127 to i64
  %129 = getelementptr inbounds [100 x [100 x i32]], [100 x [100 x i32]]* %6, i64 0, i64 %128
  %130 = getelementptr inbounds [100 x i32], [100 x i32]* %129, i64 0, i64 0
  %131 = load i32, i32* %130, align 16
  %132 = load i32, i32* %5, align 4
  %133 = sext i32 %132 to i64
  %134 = getelementptr inbounds [100 x i32], [100 x i32]* %9, i64 0, i64 %133
  %135 = load i32, i32* %134, align 4
  %136 = sub nsw i32 %135, %131
  store i32 %136, i32* %134, align 4
  %137 = getelementptr inbounds [100 x [100 x i32]], [100 x [100 x i32]]* %6, i64 0, i64 0
  %138 = load i32, i32* %4, align 4
  %139 = sub nsw i32 %138, 1
  %140 = sext i32 %139 to i64
  %141 = getelementptr inbounds [100 x i32], [100 x i32]* %137, i64 0, i64 %140
  %142 = load i32, i32* %141, align 4
  %143 = load i32, i32* %5, align 4
  %144 = sext i32 %143 to i64
  %145 = getelementptr inbounds [100 x i32], [100 x i32]* %9, i64 0, i64 %144
  %146 = load i32, i32* %145, align 4
  %147 = sub nsw i32 %146, %142
  store i32 %147, i32* %145, align 4
  %148 = load i32, i32* %3, align 4
  %149 = sub nsw i32 %148, 1
  %150 = sext i32 %149 to i64
  %151 = getelementptr inbounds [100 x [100 x i32]], [100 x [100 x i32]]* %6, i64 0, i64 %150
  %152 = load i32, i32* %4, align 4
  %153 = sub nsw i32 %152, 1
  %154 = sext i32 %153 to i64
  %155 = getelementptr inbounds [100 x i32], [100 x i32]* %151, i64 0, i64 %154
  %156 = load i32, i32* %155, align 4
  %157 = load i32, i32* %5, align 4
  %158 = sext i32 %157 to i64
  %159 = getelementptr inbounds [100 x i32], [100 x i32]* %9, i64 0, i64 %158
  %160 = load i32, i32* %159, align 4
  %161 = sub nsw i32 %160, %156
  store i32 %161, i32* %159, align 4
  br label %162

162:                                              ; preds = %117
  %163 = load i32, i32* %5, align 4
  %164 = add nsw i32 %163, 1
  store i32 %164, i32* %5, align 4
  br label %23

165:                                              ; preds = %23
  store i32 0, i32* %5, align 4
  br label %166

166:                                              ; preds = %176, %165
  %167 = load i32, i32* %5, align 4
  %168 = load i32, i32* %2, align 4
  %169 = icmp slt i32 %167, %168
  br i1 %169, label %170, label %179

170:                                              ; preds = %166
  %171 = load i32, i32* %5, align 4
  %172 = sext i32 %171 to i64
  %173 = getelementptr inbounds [100 x i32], [100 x i32]* %9, i64 0, i64 %172
  %174 = load i32, i32* %173, align 4
  %175 = call i32 (i8*, ...) @printf(i8* getelementptr inbounds ([4 x i8], [4 x i8]* @.str.2, i64 0, i64 0), i32 %174)
  br label %176

176:                                              ; preds = %170
  %177 = load i32, i32* %5, align 4
  %178 = add nsw i32 %177, 1
  store i32 %178, i32* %5, align 4
  br label %166

179:                                              ; preds = %166
  ret i32 0
}

declare dso_local i32 @__isoc99_scanf(i8*, ...) #1

declare dso_local i32 @printf(i8*, ...) #1


!llvm.module.flags = !{!0}
!llvm.ident = !{!1}

!0 = !{i32 1, !"wchar_size", i32 4}
!1 = !{!"clang version 10.0.0-4ubuntu1 "}
